; Function Attrs: mustprogress nounwind uwtable
define internal void @_ZN3gmx12_GLOBAL__N_123KeyValueTreeBackMappingD2Ev(ptr nocapture noundef nonnull align 8 dereferenceable(80) %0) unnamed_addr #6 align 2 personality ptr @__gxx_personality_v0 {
  store ptr getelementptr inbounds inrange(-16, 24) ({ [5 x ptr] }, ptr @_ZTVN3gmx12_GLOBAL__N_123KeyValueTreeBackMappingE, i64 0, i32 0, i64 2), ptr %0, align 8
  %2 = getelementptr inbounds i8, ptr %0, i64 8
  %3 = getelementptr inbounds i8, ptr %0, i64 48
  %.val.i.i.i = load ptr, ptr %3, align 8
  tail call fastcc void @_ZNSt8_Rb_treeINSt7__cxx1112basic_stringIcSt11char_traitsIcESaIcEEESt4pairIKS5_N3gmx12_GLOBAL__N_123KeyValueTreeBackMapping5EntryEESt10_Select1stISC_ESt4lessIS5_ESaISC_EE8_M_eraseEPSt13_Rb_tree_nodeISC_E(ptr noundef %.val.i.i.i)
  %4 = load ptr, ptr %2, align 8
  %5 = getelementptr inbounds i8, ptr %0, i64 16
  %6 = load ptr, ptr %5, align 8
  %.not4.i.i.i.i.i.i = icmp eq ptr %4, %6
  br i1 %.not4.i.i.i.i.i.i, label %_ZSt8_DestroyIPNSt7__cxx1112basic_stringIcSt11char_traitsIcESaIcEEES5_EvT_S7_RSaIT0_E.exit.i.i.i, label %.lr.ph.i.i.i.i.i.i

.lr.ph.i.i.i.i.i.i:                               ; preds = %1, %.lr.ph.i.i.i.i.i.i
  %.05.i.i.i.i.i.i = phi ptr [ %7, %.lr.ph.i.i.i.i.i.i ], [ %4, %1 ]
  tail call void @_ZNSt7__cxx1112basic_stringIcSt11char_traitsIcESaIcEED1Ev(ptr noundef nonnull align 8 dereferenceable(32) %.05.i.i.i.i.i.i) #26
  %7 = getelementptr inbounds i8, ptr %.05.i.i.i.i.i.i, i64 32
  %.not.i.i.i.i.i.i = icmp eq ptr %7, %6
  br i1 %.not.i.i.i.i.i.i, label %_ZSt8_DestroyIPNSt7__cxx1112basic_stringIcSt11char_traitsIcESaIcEEES5_EvT_S7_RSaIT0_E.exitthread-pre-split.i.i.i, label %.lr.ph.i.i.i.i.i.i, !llvm.loop !5

_ZSt8_DestroyIPNSt7__cxx1112basic_stringIcSt11char_traitsIcESaIcEEES5_EvT_S7_RSaIT0_E.exitthread-pre-split.i.i.i: ; preds = %.lr.ph.i.i.i.i.i.i
  %.pr.i.i.i = load ptr, ptr %2, align 8
  br label %_ZSt8_DestroyIPNSt7__cxx1112basic_stringIcSt11char_traitsIcESaIcEEES5_EvT_S7_RSaIT0_E.exit.i.i.i

_ZSt8_DestroyIPNSt7__cxx1112basic_stringIcSt11char_traitsIcESaIcEEES5_EvT_S7_RSaIT0_E.exit.i.i.i: ; preds = %_ZSt8_DestroyIPNSt7__cxx1112basic_stringIcSt11char_traitsIcESaIcEEES5_EvT_S7_RSaIT0_E.exitthread-pre-split.i.i.i, %1
  %8 = phi ptr [ %.pr.i.i.i, %_ZSt8_DestroyIPNSt7__cxx1112basic_stringIcSt11char_traitsIcESaIcEEES5_EvT_S7_RSaIT0_E.exitthread-pre-split.i.i.i ], [ %4, %1 ]
  %.not.i.i.i.i.i = icmp eq ptr %8, null
  br i1 %.not.i.i.i.i.i, label %_ZN3gmx12_GLOBAL__N_123KeyValueTreeBackMapping5EntryD2Ev.exit, label %9

9:                                                ; preds = %_ZSt8_DestroyIPNSt7__cxx1112basic_stringIcSt11char_traitsIcESaIcEEES5_EvT_S7_RSaIT0_E.exit.i.i.i
  tail call void @_ZdlPv(ptr noundef nonnull %8) #25
  br label %_ZN3gmx12_GLOBAL__N_123KeyValueTreeBackMapping5EntryD2Ev.exit

_ZN3gmx12_GLOBAL__N_123KeyValueTreeBackMapping5EntryD2Ev.exit: ; preds = %_ZSt8_DestroyIPNSt7__cxx1112basic_stringIcSt11char_traitsIcESaIcEEES5_EvT_S7_RSaIT0_E.exit.i.i.i, %9
  ret void
}